target datalayout = "e-m:e-p270:32:32-p271:32:32-p272:64:64-i64:64-i128:128-f80:128-n8:16:32:64-S128"
target triple = "x86_64-pc-linux-gnu"

%"struct.xgboost::GlobalConfiguration" = type { %"struct.xgboost::XGBoostParameter", i32, i8, i32 }
%"struct.xgboost::XGBoostParameter" = type { i8 }
%"struct.xgboost::InitNewThread" = type { %"struct.xgboost::GlobalConfiguration", i32 }

@_ZZN4dmlc16ThreadLocalStoreIN7xgboost19GlobalConfigurationEE3GetEvE4inst = linkonce_odr thread_local global { i8, i32, i8, i32 } { i8 0, i32 1, i8 0, i32 0 }, comdat, align 4

; Function Attrs: inlinehint mustprogress nounwind uwtable
define linkonce_odr void @omp_set_num_threads(i32 noundef %0) #7 comdat {
  %2 = alloca i32, align 4
  store i32 %0, ptr %2, align 4, !tbaa !26
  ret void
}

; Function Attrs: mustprogress nounwind uwtable
define linkonce_odr noundef ptr @_ZN4dmlc16ThreadLocalStoreIN7xgboost19GlobalConfigurationEE3GetEv() #6 comdat align 2 {
  %1 = call align 4 ptr @llvm.threadlocal.address.p0(ptr align 4 @_ZZN4dmlc16ThreadLocalStoreIN7xgboost19GlobalConfigurationEE3GetEvE4inst)
  ret ptr %1
}

; Function Attrs: mustprogress uwtable
define void @_ZNK7xgboost13InitNewThreadclEv(ptr noundef nonnull align 4 dereferenceable(20) %0) #4 align 2 {
  %2 = alloca ptr, align 8
  store ptr %0, ptr %2, align 8, !tbaa !17
  %3 = load ptr, ptr %2, align 8
  %4 = getelementptr inbounds nuw %"struct.xgboost::InitNewThread", ptr %3, i32 0, i32 0
  %5 = call noundef ptr @_ZN4dmlc16ThreadLocalStoreIN7xgboost19GlobalConfigurationEE3GetEv()
  call void @llvm.memcpy.p0.p0.i64(ptr align 4 %5, ptr align 4 %4, i64 16, i1 false)
  %6 = getelementptr inbounds nuw %"struct.xgboost::InitNewThread", ptr %3, i32 0, i32 0
  %7 = getelementptr inbounds nuw %"struct.xgboost::GlobalConfiguration", ptr %6, i32 0, i32 3
  %8 = load i32, ptr %7, align 4, !tbaa !25
  %9 = icmp sgt i32 %8, 0
  br i1 %9, label %10, label %14

10:                                               ; preds = %1
  %11 = getelementptr inbounds nuw %"struct.xgboost::InitNewThread", ptr %3, i32 0, i32 0
  %12 = getelementptr inbounds nuw %"struct.xgboost::GlobalConfiguration", ptr %11, i32 0, i32 3
  %13 = load i32, ptr %12, align 4, !tbaa !25
  call void @omp_set_num_threads(i32 noundef %13)
  br label %14

14:                                               ; preds = %10, %1
  %15 = getelementptr inbounds nuw %"struct.xgboost::InitNewThread", ptr %3, i32 0, i32 1
  %16 = load i32, ptr %15, align 4, !tbaa !19
  %17 = icmp sge i32 %16, 0
  br i1 %17, label %18, label %21

18:                                               ; preds = %14
  %19 = getelementptr inbounds nuw %"struct.xgboost::InitNewThread", ptr %3, i32 0, i32 1
  %20 = load i32, ptr %19, align 4, !tbaa !19
  call void @_ZN7xgboost4curt9SetDeviceEi(i32 noundef %20)
  br label %21

21:                                               ; preds = %18, %14
  ret void
}