; Function Attrs: mustprogress uwtable
define void @_ZNK7xgboost13InitNewThreadclEv(ptr noundef nonnull readonly align 4 captures(none) dereferenceable(20) %0) local_unnamed_addr #3 align 2 {
  %2 = tail call noundef align 4 ptr @llvm.threadlocal.address.p0(ptr align 4 @_ZZN4dmlc16ThreadLocalStoreIN7xgboost19GlobalConfigurationEE3GetEvE4inst)
  tail call void @llvm.memcpy.p0.p0.i64(ptr noundef nonnull align 4 dereferenceable(16) %2, ptr noundef nonnull align 4 dereferenceable(16) %0, i64 16, i1 false)
  %3 = getelementptr inbounds nuw i8, ptr %0, i64 16
  %4 = load i32, ptr %3, align 4, !tbaa !33
  %5 = icmp sgt i32 %4, -1
  br i1 %5, label %6, label %7

6:                                                ; preds = %1
  tail call void @_ZN7xgboost4curt9SetDeviceEi(i32 noundef %4)
  br label %7

7:                                                ; preds = %6, %1
  ret void
}